target datalayout = "e-m:e-p270:32:32-p271:32:32-p272:64:64-i64:64-i128:128-f80:128-n8:16:32:64-S128"
target triple = "x86_64-pc-linux-gnu"

%struct.ClientConnectionInfo = type { ptr, i32 }
%struct.SerializedClientConnectionInfo = type { i32, i32 }

@MyClientConnectionInfo = dso_local global %struct.ClientConnectionInfo zeroinitializer, align 8

; Function Attrs: nounwind uwtable
define dso_local void @SerializeClientConnectionInfo(i64 noundef %0, ptr noundef %1) #0 {
  %3 = alloca i64, align 8
  %4 = alloca ptr, align 8
  %5 = alloca %struct.SerializedClientConnectionInfo, align 4
  store i64 %0, ptr %3, align 8
  store ptr %1, ptr %4, align 8
  call void @llvm.lifetime.start.p0(i64 8, ptr %5) #12
  call void @llvm.memset.p0.i64(ptr align 4 %5, i8 0, i64 8, i1 false)
  %6 = getelementptr inbounds nuw %struct.SerializedClientConnectionInfo, ptr %5, i32 0, i32 0
  store i32 -1, ptr %6, align 4
  %7 = load i32, ptr getelementptr inbounds nuw (%struct.ClientConnectionInfo, ptr @MyClientConnectionInfo, i32 0, i32 1), align 8
  %8 = getelementptr inbounds nuw %struct.SerializedClientConnectionInfo, ptr %5, i32 0, i32 1
  store i32 %7, ptr %8, align 4
  %9 = load ptr, ptr @MyClientConnectionInfo, align 8
  %10 = icmp ne ptr %9, null
  br i1 %10, label %11, label %16

11:                                               ; preds = %2
  %12 = load ptr, ptr @MyClientConnectionInfo, align 8
  %13 = call i64 @strlen(ptr noundef %12) #15
  %14 = trunc i64 %13 to i32
  %15 = getelementptr inbounds nuw %struct.SerializedClientConnectionInfo, ptr %5, i32 0, i32 0
  store i32 %14, ptr %15, align 4
  br label %16

16:                                               ; preds = %11, %2
  %17 = load ptr, ptr %4, align 8
  call void @llvm.memcpy.p0.p0.i64(ptr align 1 %17, ptr align 4 %5, i64 8, i1 false)
  %18 = load i64, ptr %3, align 8
  %19 = sub i64 %18, 8
  store i64 %19, ptr %3, align 8
  %20 = load ptr, ptr %4, align 8
  %21 = getelementptr inbounds nuw i8, ptr %20, i64 8
  store ptr %21, ptr %4, align 8
  %22 = getelementptr inbounds nuw %struct.SerializedClientConnectionInfo, ptr %5, i32 0, i32 0
  %23 = load i32, ptr %22, align 4
  %24 = icmp sge i32 %23, 0
  br i1 %24, label %25, label %32

25:                                               ; preds = %16
  %26 = load ptr, ptr %4, align 8
  %27 = load ptr, ptr @MyClientConnectionInfo, align 8
  %28 = getelementptr inbounds nuw %struct.SerializedClientConnectionInfo, ptr %5, i32 0, i32 0
  %29 = load i32, ptr %28, align 4
  %30 = add i32 %29, 1
  %31 = sext i32 %30 to i64
  call void @llvm.memcpy.p0.p0.i64(ptr align 1 %26, ptr align 1 %27, i64 %31, i1 false)
  br label %32

32:                                               ; preds = %25, %16
  call void @llvm.lifetime.end.p0(i64 8, ptr %5) #12
  ret void
}