; Function Attrs: mustprogress nofree nounwind willreturn memory(readwrite, inaccessiblemem: none) uwtable
define dso_local void @SerializeClientConnectionInfo(i64 noundef %0, ptr noundef writeonly captures(none) initializes((0, 8)) %1) local_unnamed_addr #14 {
  %3 = load i32, ptr getelementptr inbounds nuw (i8, ptr @MyClientConnectionInfo, i64 8), align 8
  %4 = load ptr, ptr @MyClientConnectionInfo, align 8
  %.not = icmp eq ptr %4, null
  br i1 %.not, label %.thread, label %5

.thread:                                          ; preds = %2
  store i32 -1, ptr %1, align 1
  %.sroa.8.0..sroa_idx7 = getelementptr inbounds nuw i8, ptr %1, i64 4
  store i32 %3, ptr %.sroa.8.0..sroa_idx7, align 1
  br label %14

5:                                                ; preds = %2
  %6 = tail call i64 @strlen(ptr noundef nonnull dereferenceable(1) %4) #25
  %7 = trunc i64 %6 to i32
  store i32 %7, ptr %1, align 1
  %.sroa.8.0..sroa_idx = getelementptr inbounds nuw i8, ptr %1, i64 4
  store i32 %3, ptr %.sroa.8.0..sroa_idx, align 1
  %8 = icmp sgt i32 %7, -1
  br i1 %8, label %9, label %14

9:                                                ; preds = %5
  %10 = getelementptr inbounds nuw i8, ptr %1, i64 8
  %11 = load ptr, ptr @MyClientConnectionInfo, align 8
  %12 = shl i64 %6, 32
  %sext = add nuw i64 %12, 4294967296
  %13 = ashr exact i64 %sext, 32
  tail call void @llvm.memcpy.p0.p0.i64(ptr noundef nonnull align 1 dereferenceable(1) %10, ptr noundef nonnull align 1 dereferenceable(1) %11, i64 %13, i1 false)
  br label %14

14:                                               ; preds = %.thread, %9, %5
  ret void
}